; Function Attrs: mustprogress uwtable
define noundef range(i32 0, 2) i32 @_ZNK6casadi14OracleFunction14local_init_memEPv(ptr noundef nonnull align 8 dereferenceable(1528) %0, ptr noundef %1) local_unnamed_addr #3 align 2 {
  %3 = tail call noundef i32 @_ZNK6casadi13ProtoFunction8init_memEPv(ptr noundef nonnull align 8 dereferenceable(168) %0, ptr noundef %1)
  %.not = icmp ne i32 %3, 0
  %.not9 = icmp eq ptr %1, null
  %or.cond = or i1 %.not9, %.not
  br i1 %or.cond, label %.loopexit, label %4

4:                                                ; preds = %2
  %5 = getelementptr inbounds nuw i8, ptr %0, i64 1448
  %6 = load ptr, ptr %5, align 8, !tbaa !29
  %7 = getelementptr inbounds nuw i8, ptr %0, i64 1432
  %.not1314 = icmp eq ptr %6, %7
  br i1 %.not1314, label %.loopexit, label %.lr.ph

.lr.ph:                                           ; preds = %4, %.lr.ph
  %.sroa.010.015 = phi ptr [ %9, %.lr.ph ], [ %6, %4 ]
  %8 = getelementptr inbounds nuw i8, ptr %.sroa.010.015, i64 32
  tail call void @_ZN6casadi19ProtoFunctionMemory8add_statERKNSt7__cxx1112basic_stringIcSt11char_traitsIcESaIcEEE(ptr noundef nonnull align 8 dereferenceable(56) %1, ptr noundef nonnull align 8 dereferenceable(32) %8)
  %9 = tail call noundef ptr @_ZSt18_Rb_tree_incrementPKSt18_Rb_tree_node_base(ptr noundef %.sroa.010.015) #33
  %.not13 = icmp eq ptr %9, %7
  br i1 %.not13, label %.loopexit, label %.lr.ph

.loopexit:                                        ; preds = %.lr.ph, %4, %2
  %.0 = phi i32 [ 1, %2 ], [ 0, %4 ], [ 0, %.lr.ph ]
  ret i32 %.0
}